target datalayout = "e-m:e-p270:32:32-p271:32:32-p272:64:64-i64:64-i128:128-f80:128-n8:16:32:64-S128"
target triple = "x86_64-pc-linux-gnu"

%union.pthread_mutex_t = type { %struct.__pthread_mutex_s }
%struct.__pthread_mutex_s = type { i32, i32, i32, i32, i32, i16, i16, %struct.__pthread_internal_list }
%struct.__pthread_internal_list = type { ptr, ptr }
%union.pthread_attr_t = type { i64, [48 x i8] }

@plugin_type = dso_local constant [15 x i8] c"jobcomp/script\00", align 1
@.str = private unnamed_addr constant [42 x i8] c"%s: %s: jobcomp/script plugin loaded init\00", align 1
@__func__.init = private unnamed_addr constant [5 x i8] c"init\00", align 1
@thread_flag_mutex = internal global %union.pthread_mutex_t zeroinitializer, align 8
@.str.1 = private unnamed_addr constant [29 x i8] c"%s: pthread_mutex_lock(): %m\00", align 1
@comp_list = internal global ptr null, align 8
@.str.2 = private unnamed_addr constant [31 x i8] c"%s: pthread_mutex_unlock(): %m\00", align 1
@.str.3 = private unnamed_addr constant [22 x i8] c"pthread_attr_init: %m\00", align 1
@.str.4 = private unnamed_addr constant [26 x i8] c"pthread_attr_setscope: %m\00", align 1
@.str.5 = private unnamed_addr constant [30 x i8] c"pthread_attr_setstacksize: %m\00", align 1
@script_thread = internal global i64 0, align 8
@.str.6 = private unnamed_addr constant [28 x i8] c"%s: pthread_create error %m\00", align 1
@.str.7 = private unnamed_addr constant [55 x i8] c"pthread_attr_destroy failed, possible memory leak!: %m\00", align 1

; Function Attrs: nounwind uwtable
define dso_local i32 @init() #0 {
  %1 = alloca i32, align 4
  %2 = alloca i32, align 4
  %3 = alloca i32, align 4
  %4 = alloca %union.pthread_attr_t, align 8
  %5 = alloca i32, align 4
  %6 = alloca i32, align 4
  %7 = alloca i32, align 4
  %8 = alloca i32, align 4
  br label %9

9:                                                ; preds = %0
  br label %10

10:                                               ; preds = %9
  %11 = call i32 @slurm_get_log_level()
  %12 = icmp sge i32 %11, 4
  br i1 %12, label %13, label %14

13:                                               ; preds = %10
  call void (i32, ptr, ...) @slurm_log_var(i32 noundef 4, ptr noundef @.str, ptr noundef @plugin_type, ptr noundef @__func__.init)
  br label %14

14:                                               ; preds = %13, %10
  br label %15

15:                                               ; preds = %14
  br label %16

16:                                               ; preds = %15
  br label %17

17:                                               ; preds = %16
  call void @llvm.lifetime.start.p0(i64 4, ptr %2) #7
  %18 = call i32 @pthread_mutex_lock(ptr noundef @thread_flag_mutex) #7
  store i32 %18, ptr %2, align 4
  %19 = load i32, ptr %2, align 4
  %20 = icmp ne i32 %19, 0
  br i1 %20, label %21, label %24

21:                                               ; preds = %17
  %22 = load i32, ptr %2, align 4
  %23 = call ptr @__errno_location() #8
  store i32 %22, ptr %23, align 4
  call void (ptr, ...) @slurm_fatal_abort(ptr noundef @.str.1, ptr noundef @__func__.init) #9
  unreachable

24:                                               ; preds = %17
  call void @llvm.lifetime.end.p0(i64 4, ptr %2) #7
  br label %25

25:                                               ; preds = %24
  %26 = load ptr, ptr @comp_list, align 8
  %27 = icmp ne ptr %26, null
  br i1 %27, label %28, label %38

28:                                               ; preds = %25
  br label %29

29:                                               ; preds = %28
  call void @llvm.lifetime.start.p0(i64 4, ptr %3) #7
  %30 = call i32 @pthread_mutex_unlock(ptr noundef @thread_flag_mutex) #7
  store i32 %30, ptr %3, align 4
  %31 = load i32, ptr %3, align 4
  %32 = icmp ne i32 %31, 0
  br i1 %32, label %33, label %36

33:                                               ; preds = %29
  %34 = load i32, ptr %3, align 4
  %35 = call ptr @__errno_location() #8
  store i32 %34, ptr %35, align 4
  call void (ptr, ...) @slurm_fatal_abort(ptr noundef @.str.2, ptr noundef @__func__.init) #9
  unreachable

36:                                               ; preds = %29
  call void @llvm.lifetime.end.p0(i64 4, ptr %3) #7
  br label %37

37:                                               ; preds = %36
  store i32 -1, ptr %1, align 4
  br label %95

38:                                               ; preds = %25
  %39 = call ptr @slurm_list_create(ptr noundef @_jobcomp_info_destroy)
  store ptr %39, ptr @comp_list, align 8
  br label %40

40:                                               ; preds = %38
  call void @llvm.lifetime.start.p0(i64 56, ptr %4) #7
  call void @llvm.lifetime.start.p0(i64 4, ptr %5) #7
  br label %41

41:                                               ; preds = %40
  call void @llvm.lifetime.start.p0(i64 4, ptr %6) #7
  %42 = call i32 @pthread_attr_init(ptr noundef %4) #7
  store i32 %42, ptr %6, align 4
  %43 = load i32, ptr %6, align 4
  %44 = icmp ne i32 %43, 0
  br i1 %44, label %45, label %48

45:                                               ; preds = %41
  %46 = load i32, ptr %6, align 4
  %47 = call ptr @__errno_location() #8
  store i32 %46, ptr %47, align 4
  call void (ptr, ...) @slurm_fatal(ptr noundef @.str.3) #9
  unreachable

48:                                               ; preds = %41
  %49 = call i32 @pthread_attr_setscope(ptr noundef %4, i32 noundef 0) #7
  store i32 %49, ptr %6, align 4
  %50 = load i32, ptr %6, align 4
  %51 = icmp ne i32 %50, 0
  br i1 %51, label %52, label %56

52:                                               ; preds = %48
  %53 = load i32, ptr %6, align 4
  %54 = call ptr @__errno_location() #8
  store i32 %53, ptr %54, align 4
  %55 = call i32 (ptr, ...) @slurm_error(ptr noundef @.str.4)
  br label %56

56:                                               ; preds = %52, %48
  %57 = call i32 @pthread_attr_setstacksize(ptr noundef %4, i64 noundef 1048576) #7
  store i32 %57, ptr %6, align 4
  %58 = load i32, ptr %6, align 4
  %59 = icmp ne i32 %58, 0
  br i1 %59, label %60, label %64

60:                                               ; preds = %56
  %61 = load i32, ptr %6, align 4
  %62 = call ptr @__errno_location() #8
  store i32 %61, ptr %62, align 4
  %63 = call i32 (ptr, ...) @slurm_error(ptr noundef @.str.5)
  br label %64

64:                                               ; preds = %60, %56
  call void @llvm.lifetime.end.p0(i64 4, ptr %6) #7
  br label %65

65:                                               ; preds = %64
  br label %66

66:                                               ; preds = %65
  %67 = call i32 @pthread_create(ptr noundef @script_thread, ptr noundef %4, ptr noundef @_script_agent, ptr noundef null) #7
  store i32 %67, ptr %5, align 4
  %68 = load i32, ptr %5, align 4
  %69 = icmp ne i32 %68, 0
  br i1 %69, label %70, label %73

70:                                               ; preds = %66
  %71 = load i32, ptr %5, align 4
  %72 = call ptr @__errno_location() #8
  store i32 %71, ptr %72, align 4
  call void (ptr, ...) @slurm_fatal(ptr noundef @.str.6, ptr noundef @__func__.init) #9
  unreachable

73:                                               ; preds = %66
  br label %74

74:                                               ; preds = %73
  call void @llvm.lifetime.start.p0(i64 4, ptr %7) #7
  %75 = call i32 @pthread_attr_destroy(ptr noundef %4) #7
  store i32 %75, ptr %7, align 4
  %76 = load i32, ptr %7, align 4
  %77 = icmp ne i32 %76, 0
  br i1 %77, label %78, label %82

78:                                               ; preds = %74
  %79 = load i32, ptr %7, align 4
  %80 = call ptr @__errno_location() #8
  store i32 %79, ptr %80, align 4
  %81 = call i32 (ptr, ...) @slurm_error(ptr noundef @.str.7)
  br label %82

82:                                               ; preds = %78, %74
  call void @llvm.lifetime.end.p0(i64 4, ptr %7) #7
  br label %83

83:                                               ; preds = %82
  br label %84

84:                                               ; preds = %83
  call void @llvm.lifetime.end.p0(i64 4, ptr %5) #7
  call void @llvm.lifetime.end.p0(i64 56, ptr %4) #7
  br label %85

85:                                               ; preds = %84
  br label %86

86:                                               ; preds = %85
  call void @llvm.lifetime.start.p0(i64 4, ptr %8) #7
  %87 = call i32 @pthread_mutex_unlock(ptr noundef @thread_flag_mutex) #7
  store i32 %87, ptr %8, align 4
  %88 = load i32, ptr %8, align 4
  %89 = icmp ne i32 %88, 0
  br i1 %89, label %90, label %93

90:                                               ; preds = %86
  %91 = load i32, ptr %8, align 4
  %92 = call ptr @__errno_location() #8
  store i32 %91, ptr %92, align 4
  call void (ptr, ...) @slurm_fatal_abort(ptr noundef @.str.2, ptr noundef @__func__.init) #9
  unreachable

93:                                               ; preds = %86
  call void @llvm.lifetime.end.p0(i64 4, ptr %8) #7
  br label %94

94:                                               ; preds = %93
  store i32 0, ptr %1, align 4
  br label %95

95:                                               ; preds = %94, %37
  %96 = load i32, ptr %1, align 4
  ret i32 %96
}