; Function Attrs: nounwind uwtable
define dso_local range(i32 -1, 1) i32 @init() local_unnamed_addr #0 {
  %1 = alloca %union.pthread_attr_t, align 8
  %2 = tail call i32 @slurm_get_log_level() #10
  %3 = icmp sgt i32 %2, 3
  br i1 %3, label %4, label %5

4:                                                ; preds = %0
  tail call void (i32, ptr, ...) @slurm_log_var(i32 noundef 4, ptr noundef nonnull @.str, ptr noundef nonnull @plugin_type, ptr noundef nonnull @__func__.init) #10
  br label %5

5:                                                ; preds = %0, %4
  %6 = tail call i32 @pthread_mutex_lock(ptr noundef nonnull @thread_flag_mutex) #10
  %.not = icmp eq i32 %6, 0
  br i1 %.not, label %9, label %7

7:                                                ; preds = %5
  %8 = tail call ptr @__errno_location() #11
  store i32 %6, ptr %8, align 4
  tail call void (ptr, ...) @slurm_fatal_abort(ptr noundef nonnull @.str.1, ptr noundef nonnull @__func__.init) #12
  unreachable

9:                                                ; preds = %5
  %10 = load ptr, ptr @comp_list, align 8
  %.not25 = icmp eq ptr %10, null
  br i1 %.not25, label %15, label %11

11:                                               ; preds = %9
  %12 = tail call i32 @pthread_mutex_unlock(ptr noundef nonnull @thread_flag_mutex) #10
  %.not32 = icmp eq i32 %12, 0
  br i1 %.not32, label %43, label %13

13:                                               ; preds = %11
  %14 = tail call ptr @__errno_location() #11
  store i32 %12, ptr %14, align 4
  tail call void (ptr, ...) @slurm_fatal_abort(ptr noundef nonnull @.str.2, ptr noundef nonnull @__func__.init) #12
  unreachable

15:                                               ; preds = %9
  %16 = tail call ptr @slurm_list_create(ptr noundef nonnull @_jobcomp_info_destroy) #10
  store ptr %16, ptr @comp_list, align 8
  call void @llvm.lifetime.start.p0(i64 56, ptr nonnull %1) #10
  %17 = call i32 @pthread_attr_init(ptr noundef nonnull %1) #10
  %.not26 = icmp eq i32 %17, 0
  br i1 %.not26, label %20, label %18

18:                                               ; preds = %15
  %19 = tail call ptr @__errno_location() #11
  store i32 %17, ptr %19, align 4
  call void (ptr, ...) @slurm_fatal(ptr noundef nonnull @.str.3) #12
  unreachable

20:                                               ; preds = %15
  %21 = call i32 @pthread_attr_setscope(ptr noundef nonnull %1, i32 noundef 0) #10
  %.not27 = icmp eq i32 %21, 0
  br i1 %.not27, label %25, label %22

22:                                               ; preds = %20
  %23 = tail call ptr @__errno_location() #11
  store i32 %21, ptr %23, align 4
  %24 = call i32 (ptr, ...) @slurm_error(ptr noundef nonnull @.str.4) #10
  br label %25

25:                                               ; preds = %22, %20
  %26 = call i32 @pthread_attr_setstacksize(ptr noundef nonnull %1, i64 noundef 1048576) #10
  %.not28 = icmp eq i32 %26, 0
  br i1 %.not28, label %30, label %27

27:                                               ; preds = %25
  %28 = tail call ptr @__errno_location() #11
  store i32 %26, ptr %28, align 4
  %29 = call i32 (ptr, ...) @slurm_error(ptr noundef nonnull @.str.5) #10
  br label %30

30:                                               ; preds = %27, %25
  %31 = call i32 @pthread_create(ptr noundef nonnull @script_thread, ptr noundef nonnull %1, ptr noundef nonnull @_script_agent, ptr noundef null) #10
  %.not29 = icmp eq i32 %31, 0
  br i1 %.not29, label %34, label %32

32:                                               ; preds = %30
  %33 = tail call ptr @__errno_location() #11
  store i32 %31, ptr %33, align 4
  call void (ptr, ...) @slurm_fatal(ptr noundef nonnull @.str.6, ptr noundef nonnull @__func__.init) #12
  unreachable

34:                                               ; preds = %30
  %35 = call i32 @pthread_attr_destroy(ptr noundef nonnull %1) #10
  %.not30 = icmp eq i32 %35, 0
  br i1 %.not30, label %39, label %36

36:                                               ; preds = %34
  %37 = tail call ptr @__errno_location() #11
  store i32 %35, ptr %37, align 4
  %38 = call i32 (ptr, ...) @slurm_error(ptr noundef nonnull @.str.7) #10
  br label %39

39:                                               ; preds = %36, %34
  call void @llvm.lifetime.end.p0(i64 56, ptr nonnull %1) #10
  %40 = call i32 @pthread_mutex_unlock(ptr noundef nonnull @thread_flag_mutex) #10
  %.not31 = icmp eq i32 %40, 0
  br i1 %.not31, label %43, label %41

41:                                               ; preds = %39
  %42 = tail call ptr @__errno_location() #11
  store i32 %40, ptr %42, align 4
  call void (ptr, ...) @slurm_fatal_abort(ptr noundef nonnull @.str.2, ptr noundef nonnull @__func__.init) #12
  unreachable

43:                                               ; preds = %39, %11
  %.0 = phi i32 [ -1, %11 ], [ 0, %39 ]
  ret i32 %.0
}